target datalayout = "e-m:e-p270:32:32-p271:32:32-p272:64:64-i64:64-i128:128-f80:128-n8:16:32:64-S128"
target triple = "x86_64-pc-linux-gnu"

%struct.RString = type { %struct.RBasic, i64, %union.anon }
%struct.RBasic = type { i64, i64 }
%union.anon = type { %struct.anon }
%struct.anon = type { ptr, %union.anon.0 }
%union.anon.0 = type { i64 }
%struct.anon.1 = type { [1 x i8] }

@.str.16 = private unnamed_addr constant [2 x i8] c"E\00", align 1
@sym2encidx.name_encoding = internal constant [8 x i8] c"encoding", align 1

; Function Attrs: inlinehint nounwind sspstrong willreturn memory(read) uwtable
define internal i64 @RB_FL_TEST_RAW(i64 noundef %0, i64 noundef %1) #7 {
  %3 = alloca i64, align 8
  %4 = alloca i64, align 8
  store i64 %0, ptr %3, align 8, !tbaa !7
  store i64 %1, ptr %4, align 8, !tbaa !7
  %5 = load i64, ptr %3, align 8, !tbaa !7
  %6 = inttoptr i64 %5 to ptr
  %7 = getelementptr inbounds nuw %struct.RBasic, ptr %6, i32 0, i32 0
  %8 = load i64, ptr %7, align 8, !tbaa !66
  %9 = load i64, ptr %4, align 8, !tbaa !7
  %10 = and i64 %8, %9
  ret i64 %10
}

; Function Attrs: inlinehint nounwind sspstrong willreturn memory(read) uwtable
define internal i64 @RSTRING_LEN(i64 noundef %0) #7 {
  %2 = alloca i64, align 8
  store i64 %0, ptr %2, align 8, !tbaa !7
  %3 = load i64, ptr %2, align 8, !tbaa !7
  %4 = inttoptr i64 %3 to ptr
  %5 = getelementptr inbounds nuw %struct.RString, ptr %4, i32 0, i32 1
  %6 = load i64, ptr %5, align 8, !tbaa !63
  ret i64 %6
}

; Function Attrs: inlinehint nounwind sspstrong willreturn memory(read) uwtable
define internal zeroext i1 @RB_FL_ANY_RAW(i64 noundef %0, i64 noundef %1) #7 {
  %3 = alloca i64, align 8
  %4 = alloca i64, align 8
  store i64 %0, ptr %3, align 8, !tbaa !7
  store i64 %1, ptr %4, align 8, !tbaa !7
  %5 = load i64, ptr %3, align 8, !tbaa !7
  %6 = load i64, ptr %4, align 8, !tbaa !7
  %7 = call i64 @RB_FL_TEST_RAW(i64 noundef %5, i64 noundef %6) #27
  %8 = icmp ne i64 %7, 0
  ret i1 %8
}

; Function Attrs: inlinehint nounwind sspstrong uwtable
define internal i32 @name_equal(ptr noundef %0, i64 noundef %1, ptr noundef %2, i64 noundef %3) #5 {
  %5 = alloca i32, align 4
  %6 = alloca ptr, align 8
  %7 = alloca i64, align 8
  %8 = alloca ptr, align 8
  %9 = alloca i64, align 8
  store ptr %0, ptr %6, align 8, !tbaa !20
  store i64 %1, ptr %7, align 8, !tbaa !7
  store ptr %2, ptr %8, align 8, !tbaa !20
  store i64 %3, ptr %9, align 8, !tbaa !7
  %10 = load i64, ptr %9, align 8, !tbaa !7
  %11 = load i64, ptr %7, align 8, !tbaa !7
  %12 = icmp ne i64 %10, %11
  br i1 %12, label %21, label %13

13:                                               ; preds = %4
  %14 = load ptr, ptr %8, align 8, !tbaa !20
  %15 = load i8, ptr %14, align 1, !tbaa !24
  %16 = sext i8 %15 to i32
  %17 = load ptr, ptr %6, align 8, !tbaa !20
  %18 = load i8, ptr %17, align 1, !tbaa !24
  %19 = sext i8 %18 to i32
  %20 = icmp ne i32 %16, %19
  br i1 %20, label %21, label %22

21:                                               ; preds = %13, %4
  store i32 0, ptr %5, align 4
  br label %37

22:                                               ; preds = %13
  %23 = load i64, ptr %7, align 8, !tbaa !7
  %24 = icmp eq i64 %23, 1
  br i1 %24, label %34, label %25

25:                                               ; preds = %22
  %26 = load ptr, ptr %8, align 8, !tbaa !20
  %27 = getelementptr i8, ptr %26, i64 1
  %28 = load ptr, ptr %6, align 8, !tbaa !20
  %29 = getelementptr i8, ptr %28, i64 1
  %30 = load i64, ptr %7, align 8, !tbaa !7
  %31 = sub i64 %30, 1
  %32 = call i32 @memcmp(ptr noundef %27, ptr noundef %29, i64 noundef %31) #27
  %33 = icmp eq i32 %32, 0
  br label %34

34:                                               ; preds = %25, %22
  %35 = phi i1 [ true, %22 ], [ %33, %25 ]
  %36 = zext i1 %35 to i32
  store i32 %36, ptr %5, align 4
  br label %37

37:                                               ; preds = %34, %21
  %38 = load i32, ptr %5, align 4
  ret i32 %38
}

; Function Attrs: inlinehint nounwind sspstrong willreturn memory(read, argmem: readwrite) uwtable
define internal void @rbimpl_rstring_getmem(ptr dead_on_unwind noalias writable sret(%struct.RString) align 8 %0, i64 noundef %1) #15 {
  %3 = alloca i64, align 8
  store i64 %1, ptr %3, align 8, !tbaa !7
  %4 = load i64, ptr %3, align 8, !tbaa !7
  %5 = call zeroext i1 @RB_FL_ANY_RAW(i64 noundef %4, i64 noundef 8192) #27
  br i1 %5, label %6, label %9

6:                                                ; preds = %2
  %7 = load i64, ptr %3, align 8, !tbaa !7
  %8 = inttoptr i64 %7 to ptr
  call void @llvm.memcpy.p0.p0.i64(ptr align 8 %0, ptr align 8 %8, i64 40, i1 false), !tbaa.struct !67
  br label %20

9:                                                ; preds = %2
  %10 = load i64, ptr %3, align 8, !tbaa !7
  %11 = call i64 @RSTRING_LEN(i64 noundef %10) #27
  %12 = getelementptr inbounds nuw %struct.RString, ptr %0, i32 0, i32 1
  store i64 %11, ptr %12, align 8, !tbaa !63
  %13 = load i64, ptr %3, align 8, !tbaa !7
  %14 = inttoptr i64 %13 to ptr
  %15 = getelementptr inbounds nuw %struct.RString, ptr %14, i32 0, i32 2
  %16 = getelementptr inbounds nuw %struct.anon.1, ptr %15, i32 0, i32 0
  %17 = getelementptr inbounds [1 x i8], ptr %16, i64 0, i64 0
  %18 = getelementptr inbounds nuw %struct.RString, ptr %0, i32 0, i32 2
  %19 = getelementptr inbounds nuw %struct.anon, ptr %18, i32 0, i32 0
  store ptr %17, ptr %19, align 8, !tbaa !24
  br label %20

20:                                               ; preds = %9, %6
  ret void
}

; Function Attrs: nounwind sspstrong uwtable
define internal i32 @sym2encidx(i64 noundef %0, i64 noundef %1) #0 {
  %3 = alloca i32, align 4
  %4 = alloca i64, align 8
  %5 = alloca i64, align 8
  %6 = alloca ptr, align 8
  %7 = alloca i64, align 8
  %8 = alloca i32, align 4
  %9 = alloca %struct.RString, align 8
  %10 = alloca i64, align 8
  %11 = alloca i32, align 4
  store i64 %0, ptr %4, align 8, !tbaa !7
  store i64 %1, ptr %5, align 8, !tbaa !7
  call void @llvm.lifetime.start.p0(i64 8, ptr %6) #23
  call void @llvm.lifetime.start.p0(i64 8, ptr %7) #23
  %12 = load i64, ptr %4, align 8, !tbaa !7
  %13 = call i32 @rb_enc_get_index(i64 noundef %12)
  %14 = icmp ne i32 %13, 2
  br i1 %14, label %15, label %16

15:                                               ; preds = %2
  store i32 -1, ptr %3, align 4
  store i32 1, ptr %8, align 4
  br label %51

16:                                               ; preds = %2
  call void @llvm.lifetime.start.p0(i64 40, ptr %9) #23
  %17 = load i64, ptr %4, align 8, !tbaa !7
  call void @rbimpl_rstring_getmem(ptr dead_on_unwind writable sret(%struct.RString) align 8 %9, i64 noundef %17) #29
  %18 = getelementptr inbounds nuw %struct.RString, ptr %9, i32 0, i32 2
  %19 = getelementptr inbounds nuw %struct.anon, ptr %18, i32 0, i32 0
  %20 = load ptr, ptr %19, align 8, !tbaa !24
  store ptr %20, ptr %6, align 8, !tbaa !20
  %21 = getelementptr inbounds nuw %struct.RString, ptr %9, i32 0, i32 1
  %22 = load i64, ptr %21, align 8, !tbaa !63
  store i64 %22, ptr %7, align 8, !tbaa !7
  store i64 %22, ptr %10, align 8, !tbaa !7
  call void @llvm.lifetime.end.p0(i64 40, ptr %9) #23
  %23 = load i64, ptr %7, align 8, !tbaa !7
  %24 = icmp sle i64 %23, 0
  br i1 %24, label %25, label %26

25:                                               ; preds = %16
  store i32 -1, ptr %3, align 4
  store i32 1, ptr %8, align 4
  br label %51

26:                                               ; preds = %16
  %27 = load ptr, ptr %6, align 8, !tbaa !20
  %28 = load i64, ptr %7, align 8, !tbaa !7
  %29 = call i32 @name_equal(ptr noundef @sym2encidx.name_encoding, i64 noundef 8, ptr noundef %27, i64 noundef %28)
  %30 = icmp ne i32 %29, 0
  br i1 %30, label %31, label %35

31:                                               ; preds = %26
  call void @llvm.lifetime.start.p0(i64 4, ptr %11) #23
  %32 = call ptr @rb_string_value_cstr(ptr noundef %5)
  %33 = call i32 @rb_enc_find_index(ptr noundef %32)
  store i32 %33, ptr %11, align 4, !tbaa !22
  %34 = load i32, ptr %11, align 4, !tbaa !22
  store i32 %34, ptr %3, align 4
  store i32 1, ptr %8, align 4
  call void @llvm.lifetime.end.p0(i64 4, ptr %11) #23
  br label %51

35:                                               ; preds = %26
  %36 = load ptr, ptr %6, align 8, !tbaa !20
  %37 = load i64, ptr %7, align 8, !tbaa !7
  %38 = call i32 @name_equal(ptr noundef @.str.16, i64 noundef 1, ptr noundef %36, i64 noundef %37)
  %39 = icmp ne i32 %38, 0
  br i1 %39, label %40, label %50

40:                                               ; preds = %35
  %41 = load i64, ptr %5, align 8, !tbaa !7
  %42 = icmp eq i64 %41, 0
  br i1 %42, label %43, label %44

43:                                               ; preds = %40
  store i32 2, ptr %3, align 4
  store i32 1, ptr %8, align 4
  br label %51

44:                                               ; preds = %40
  %45 = load i64, ptr %5, align 8, !tbaa !7
  %46 = icmp eq i64 %45, 20
  br i1 %46, label %47, label %48

47:                                               ; preds = %44
  store i32 1, ptr %3, align 4
  store i32 1, ptr %8, align 4
  br label %51

48:                                               ; preds = %44
  br label %49

49:                                               ; preds = %48
  br label %50

50:                                               ; preds = %49, %35
  store i32 -1, ptr %3, align 4
  store i32 1, ptr %8, align 4
  br label %51

51:                                               ; preds = %50, %47, %43, %31, %25, %15
  call void @llvm.lifetime.end.p0(i64 8, ptr %7) #23
  call void @llvm.lifetime.end.p0(i64 8, ptr %6) #23
  %52 = load i32, ptr %3, align 4
  ret i32 %52
}