; Function Attrs: nounwind sspstrong uwtable
define internal fastcc i32 @sym2encidx(i64 noundef %0, i64 noundef %1) unnamed_addr #0 {
  %3 = alloca i64, align 8
  store i64 %1, ptr %3, align 8, !tbaa !7
  %4 = tail call i32 @rb_enc_get_index(i64 noundef %0) #22
  %.not = icmp eq i32 %4, 2
  br i1 %.not, label %5, label %name_equal.exit19.thread

5:                                                ; preds = %2
  %6 = inttoptr i64 %0 to ptr
  %7 = load i64, ptr %6, align 8, !tbaa !56, !noalias !177
  %8 = and i64 %7, 8192
  %.not.i = icmp eq i64 %8, 0
  %9 = getelementptr inbounds nuw i8, ptr %6, i64 24
  br i1 %.not.i, label %rbimpl_rstring_getmem.exit, label %10

10:                                               ; preds = %5
  %.sroa.5.0.copyload = load ptr, ptr %9, align 8
  br label %rbimpl_rstring_getmem.exit

rbimpl_rstring_getmem.exit:                       ; preds = %5, %10
  %.sroa.5.0 = phi ptr [ %.sroa.5.0.copyload, %10 ], [ %9, %5 ]
  %.sroa.3.0.in = getelementptr inbounds nuw i8, ptr %6, i64 16
  %.sroa.3.0 = load i64, ptr %.sroa.3.0.in, align 8, !tbaa !7
  %11 = icmp slt i64 %.sroa.3.0, 1
  br i1 %11, label %name_equal.exit19.thread, label %12

12:                                               ; preds = %rbimpl_rstring_getmem.exit
  switch i64 %.sroa.3.0, label %name_equal.exit19.thread [
    i64 8, label %13
    i64 1, label %19
  ]

13:                                               ; preds = %12
  %14 = load i8, ptr %.sroa.5.0, align 1, !tbaa !17
  %.not9.i = icmp eq i8 %14, 101
  br i1 %.not9.i, label %name_equal.exit, label %name_equal.exit19.thread

name_equal.exit:                                  ; preds = %13
  %15 = getelementptr i8, ptr %.sroa.5.0, i64 1
  %bcmp.i = tail call i32 @bcmp(ptr noundef nonnull readonly dereferenceable(7) %15, ptr noundef nonnull readonly dereferenceable(7) getelementptr inbounds nuw (i8, ptr @sym2encidx.name_encoding, i64 1), i64 7)
  %.not27 = icmp eq i32 %bcmp.i, 0
  br i1 %.not27, label %16, label %name_equal.exit19.thread

16:                                               ; preds = %name_equal.exit
  %17 = call ptr @rb_string_value_cstr(ptr noundef nonnull %3) #22
  %18 = call i32 @rb_enc_find_index(ptr noundef %17) #22
  br label %name_equal.exit19.thread

19:                                               ; preds = %12
  %20 = load i8, ptr %.sroa.5.0, align 1, !tbaa !17
  %.not9.i17 = icmp eq i8 %20, 69
  br i1 %.not9.i17, label %name_equal.exit19, label %name_equal.exit19.thread

name_equal.exit19:                                ; preds = %19
  %switch.selectcmp = icmp eq i64 %1, 20
  %switch.select = select i1 %switch.selectcmp, i32 1, i32 -1
  %switch.selectcmp12 = icmp eq i64 %1, 0
  %switch.select13 = select i1 %switch.selectcmp12, i32 2, i32 %switch.select
  br label %name_equal.exit19.thread

name_equal.exit19.thread:                         ; preds = %12, %name_equal.exit, %13, %19, %name_equal.exit19, %rbimpl_rstring_getmem.exit, %2, %16
  %.0 = phi i32 [ %18, %16 ], [ -1, %2 ], [ -1, %rbimpl_rstring_getmem.exit ], [ %switch.select13, %name_equal.exit19 ], [ -1, %19 ], [ -1, %13 ], [ -1, %name_equal.exit ], [ -1, %12 ]
  ret i32 %.0
}